target datalayout = "e-m:e-p270:32:32-p271:32:32-p272:64:64-i64:64-i128:128-f80:128-n8:16:32:64-S128"
target triple = "x86_64-pc-linux-gnu"

%struct.darktable_t = type { %struct.dt_codepath_t, i32, i32, ptr, ptr, ptr, ptr, ptr, ptr, ptr, ptr, ptr, ptr, ptr, ptr, ptr, ptr, ptr, ptr, ptr, ptr, ptr, ptr, ptr, ptr, ptr, ptr, ptr, ptr, ptr, [64 x %struct.dt_pthread_mutex_t], %struct.dt_pthread_mutex_t, %struct.dt_pthread_mutex_t, %struct.dt_pthread_mutex_t, %struct.dt_pthread_mutex_t, %struct.dt_pthread_mutex_t, ptr, ptr, ptr, ptr, ptr, ptr, ptr, ptr, ptr, ptr, ptr, ptr, ptr, %struct.dt_lua_state_t, ptr, double, ptr, i32, [47 x i32], i32, i32, ptr, ptr, %struct.dt_sys_resources_t, %struct.dt_backthumb_t, %struct.dt_gimp_t }
%struct.dt_codepath_t = type { i8, [3 x i8] }
%struct.dt_pthread_mutex_t = type { %union.pthread_mutex_t }
%union.pthread_mutex_t = type { %struct.__pthread_mutex_s }
%struct.__pthread_mutex_s = type { i32, i32, i32, i32, i32, i16, i16, %struct.__pthread_internal_list }
%struct.__pthread_internal_list = type { ptr, ptr }
%struct.dt_lua_state_t = type { i32 }
%struct.dt_sys_resources_t = type { i64, i64, ptr, ptr, i32 }
%struct.dt_backthumb_t = type { double, double, i32, i32, i32, i32 }
%struct.dt_gimp_t = type { i32, ptr, ptr, i32, i32 }
%struct.dt_datetime_t = type { i32, i32, i32, i32, i32, i32, i32 }

@darktable = external global %struct.darktable_t, align 8
@__const.dt_datetime_exif_to_numbers.sdt = private unnamed_addr constant [24 x i8] c"0001-01-01 00:00:00.000\00", align 16

; Function Attrs: nounwind uwtable
define i32 @_datetime_gdatetime_to_numbers(ptr noundef %0, ptr noundef %1) #0 {
  %3 = alloca i32, align 4
  %4 = alloca ptr, align 8
  %5 = alloca ptr, align 8
  store ptr %0, ptr %4, align 8, !tbaa !49
  store ptr %1, ptr %5, align 8, !tbaa !51
  %6 = load ptr, ptr %5, align 8, !tbaa !51
  %7 = icmp ne ptr %6, null
  br i1 %7, label %8, label %40

8:                                                ; preds = %2
  %9 = load ptr, ptr %5, align 8, !tbaa !51
  %10 = call i32 @g_date_time_get_year(ptr noundef %9)
  %11 = load ptr, ptr %4, align 8, !tbaa !49
  %12 = getelementptr inbounds nuw %struct.dt_datetime_t, ptr %11, i32 0, i32 0
  store i32 %10, ptr %12, align 4, !tbaa !52
  %13 = load ptr, ptr %5, align 8, !tbaa !51
  %14 = call i32 @g_date_time_get_month(ptr noundef %13)
  %15 = load ptr, ptr %4, align 8, !tbaa !49
  %16 = getelementptr inbounds nuw %struct.dt_datetime_t, ptr %15, i32 0, i32 1
  store i32 %14, ptr %16, align 4, !tbaa !54
  %17 = load ptr, ptr %5, align 8, !tbaa !51
  %18 = call i32 @g_date_time_get_day_of_month(ptr noundef %17)
  %19 = load ptr, ptr %4, align 8, !tbaa !49
  %20 = getelementptr inbounds nuw %struct.dt_datetime_t, ptr %19, i32 0, i32 2
  store i32 %18, ptr %20, align 4, !tbaa !55
  %21 = load ptr, ptr %5, align 8, !tbaa !51
  %22 = call i32 @g_date_time_get_hour(ptr noundef %21)
  %23 = load ptr, ptr %4, align 8, !tbaa !49
  %24 = getelementptr inbounds nuw %struct.dt_datetime_t, ptr %23, i32 0, i32 3
  store i32 %22, ptr %24, align 4, !tbaa !56
  %25 = load ptr, ptr %5, align 8, !tbaa !51
  %26 = call i32 @g_date_time_get_minute(ptr noundef %25)
  %27 = load ptr, ptr %4, align 8, !tbaa !49
  %28 = getelementptr inbounds nuw %struct.dt_datetime_t, ptr %27, i32 0, i32 4
  store i32 %26, ptr %28, align 4, !tbaa !57
  %29 = load ptr, ptr %5, align 8, !tbaa !51
  %30 = call i32 @g_date_time_get_second(ptr noundef %29)
  %31 = load ptr, ptr %4, align 8, !tbaa !49
  %32 = getelementptr inbounds nuw %struct.dt_datetime_t, ptr %31, i32 0, i32 5
  store i32 %30, ptr %32, align 4, !tbaa !58
  %33 = load ptr, ptr %5, align 8, !tbaa !51
  %34 = call i32 @g_date_time_get_microsecond(ptr noundef %33)
  %35 = sitofp i32 %34 to double
  %36 = fmul reassoc nsz arcp contract afn double %35, 1.000000e-03
  %37 = fptosi double %36 to i32
  %38 = load ptr, ptr %4, align 8, !tbaa !49
  %39 = getelementptr inbounds nuw %struct.dt_datetime_t, ptr %38, i32 0, i32 6
  store i32 %37, ptr %39, align 4, !tbaa !59
  store i32 1, ptr %3, align 4
  br label %41

40:                                               ; preds = %2
  store i32 0, ptr %3, align 4
  br label %41

41:                                               ; preds = %40, %8
  %42 = load i32, ptr %3, align 4
  ret i32 %42
}

; Function Attrs: nounwind uwtable
define i32 @dt_datetime_exif_to_numbers(ptr noundef %0, ptr noundef %1) #0 {
  %3 = alloca i32, align 4
  %4 = alloca ptr, align 8
  %5 = alloca ptr, align 8
  %6 = alloca [24 x i8], align 16
  %7 = alloca i32, align 4
  %8 = alloca ptr, align 8
  %9 = alloca i32, align 4
  %10 = alloca i32, align 4
  store ptr %0, ptr %4, align 8, !tbaa !49
  store ptr %1, ptr %5, align 8, !tbaa !60
  %11 = load ptr, ptr %5, align 8, !tbaa !60
  %12 = icmp ne ptr %11, null
  br i1 %12, label %13, label %118

13:                                               ; preds = %2
  %14 = load ptr, ptr %5, align 8, !tbaa !60
  %15 = load i8, ptr %14, align 1, !tbaa !61
  %16 = sext i8 %15 to i32
  %17 = icmp ne i32 %16, 0
  br i1 %17, label %18, label %118

18:                                               ; preds = %13
  %19 = load ptr, ptr %4, align 8, !tbaa !49
  %20 = icmp ne ptr %19, null
  br i1 %20, label %21, label %118

21:                                               ; preds = %18
  call void @llvm.lifetime.start.p0(i64 24, ptr %6) #7
  call void @llvm.memcpy.p0.p0.i64(ptr align 16 %6, ptr align 16 @__const.dt_datetime_exif_to_numbers.sdt, i64 24, i1 false)
  call void @llvm.lifetime.start.p0(i64 4, ptr %7) #7
  %22 = load ptr, ptr %5, align 8, !tbaa !60
  %23 = call i64 @strlen(ptr noundef %22) #8
  %24 = trunc i64 %23 to i32
  store i32 %24, ptr %7, align 4, !tbaa !62
  %25 = load ptr, ptr %5, align 8, !tbaa !60
  %26 = load i32, ptr %7, align 4, !tbaa !62
  %27 = sub nsw i32 %26, 1
  %28 = sext i32 %27 to i64
  %29 = getelementptr inbounds i8, ptr %25, i64 %28
  %30 = load i8, ptr %29, align 1, !tbaa !61
  %31 = sext i8 %30 to i32
  %32 = icmp eq i32 %31, 90
  br i1 %32, label %33, label %36

33:                                               ; preds = %21
  %34 = load i32, ptr %7, align 4, !tbaa !62
  %35 = add nsw i32 %34, -1
  store i32 %35, ptr %7, align 4, !tbaa !62
  br label %86

36:                                               ; preds = %21
  %37 = load i32, ptr %7, align 4, !tbaa !62
  %38 = icmp sgt i32 %37, 10
  br i1 %38, label %39, label %60

39:                                               ; preds = %36
  %40 = load ptr, ptr %5, align 8, !tbaa !60
  %41 = load i32, ptr %7, align 4, !tbaa !62
  %42 = sub nsw i32 %41, 3
  %43 = sext i32 %42 to i64
  %44 = getelementptr inbounds i8, ptr %40, i64 %43
  %45 = load i8, ptr %44, align 1, !tbaa !61
  %46 = sext i8 %45 to i32
  %47 = icmp eq i32 %46, 43
  br i1 %47, label %57, label %48

48:                                               ; preds = %39
  %49 = load ptr, ptr %5, align 8, !tbaa !60
  %50 = load i32, ptr %7, align 4, !tbaa !62
  %51 = sub nsw i32 %50, 3
  %52 = sext i32 %51 to i64
  %53 = getelementptr inbounds i8, ptr %49, i64 %52
  %54 = load i8, ptr %53, align 1, !tbaa !61
  %55 = sext i8 %54 to i32
  %56 = icmp eq i32 %55, 45
  br i1 %56, label %57, label %60

57:                                               ; preds = %48, %39
  %58 = load i32, ptr %7, align 4, !tbaa !62
  %59 = sub nsw i32 %58, 3
  store i32 %59, ptr %7, align 4, !tbaa !62
  br label %85

60:                                               ; preds = %48, %36
  %61 = load i32, ptr %7, align 4, !tbaa !62
  %62 = icmp sgt i32 %61, 10
  br i1 %62, label %63, label %84

63:                                               ; preds = %60
  %64 = load ptr, ptr %5, align 8, !tbaa !60
  %65 = load i32, ptr %7, align 4, !tbaa !62
  %66 = sub nsw i32 %65, 6
  %67 = sext i32 %66 to i64
  %68 = getelementptr inbounds i8, ptr %64, i64 %67
  %69 = load i8, ptr %68, align 1, !tbaa !61
  %70 = sext i8 %69 to i32
  %71 = icmp eq i32 %70, 43
  br i1 %71, label %81, label %72

72:                                               ; preds = %63
  %73 = load ptr, ptr %5, align 8, !tbaa !60
  %74 = load i32, ptr %7, align 4, !tbaa !62
  %75 = sub nsw i32 %74, 6
  %76 = sext i32 %75 to i64
  %77 = getelementptr inbounds i8, ptr %73, i64 %76
  %78 = load i8, ptr %77, align 1, !tbaa !61
  %79 = sext i8 %78 to i32
  %80 = icmp eq i32 %79, 45
  br i1 %80, label %81, label %84

81:                                               ; preds = %72, %63
  %82 = load i32, ptr %7, align 4, !tbaa !62
  %83 = sub nsw i32 %82, 6
  store i32 %83, ptr %7, align 4, !tbaa !62
  br label %84

84:                                               ; preds = %81, %72, %60
  br label %85

85:                                               ; preds = %84, %57
  br label %86

86:                                               ; preds = %85, %33
  %87 = load i32, ptr %7, align 4, !tbaa !62
  %88 = sext i32 %87 to i64
  %89 = icmp ugt i64 %88, 23
  br i1 %89, label %90, label %91

90:                                               ; preds = %86
  br label %94

91:                                               ; preds = %86
  %92 = load i32, ptr %7, align 4, !tbaa !62
  %93 = sext i32 %92 to i64
  br label %94

94:                                               ; preds = %91, %90
  %95 = phi i64 [ 23, %90 ], [ %93, %91 ]
  %96 = trunc i64 %95 to i32
  store i32 %96, ptr %7, align 4, !tbaa !62
  %97 = getelementptr inbounds [24 x i8], ptr %6, i64 0, i64 0
  %98 = load ptr, ptr %5, align 8, !tbaa !60
  %99 = load i32, ptr %7, align 4, !tbaa !62
  %100 = sext i32 %99 to i64
  call void @llvm.memcpy.p0.p0.i64(ptr align 16 %97, ptr align 1 %98, i64 %100, i1 false)
  %101 = getelementptr inbounds [24 x i8], ptr %6, i64 0, i64 7
  store i8 45, ptr %101, align 1, !tbaa !61
  %102 = getelementptr inbounds [24 x i8], ptr %6, i64 0, i64 4
  store i8 45, ptr %102, align 4, !tbaa !61
  call void @llvm.lifetime.start.p0(i64 8, ptr %8) #7
  %103 = getelementptr inbounds [24 x i8], ptr %6, i64 0, i64 0
  %104 = load ptr, ptr getelementptr inbounds nuw (%struct.darktable_t, ptr @darktable, i32 0, i32 57), align 8, !tbaa !6
  %105 = call ptr @g_date_time_new_from_iso8601(ptr noundef %103, ptr noundef %104)
  store ptr %105, ptr %8, align 8, !tbaa !51
  %106 = load ptr, ptr %8, align 8, !tbaa !51
  %107 = icmp ne ptr %106, null
  br i1 %107, label %108, label %114

108:                                              ; preds = %94
  call void @llvm.lifetime.start.p0(i64 4, ptr %9) #7
  %109 = load ptr, ptr %4, align 8, !tbaa !49
  %110 = load ptr, ptr %8, align 8, !tbaa !51
  %111 = call i32 @_datetime_gdatetime_to_numbers(ptr noundef %109, ptr noundef %110)
  store i32 %111, ptr %9, align 4, !tbaa !62
  %112 = load ptr, ptr %8, align 8, !tbaa !51
  call void @g_date_time_unref(ptr noundef %112)
  %113 = load i32, ptr %9, align 4, !tbaa !62
  store i32 %113, ptr %3, align 4
  store i32 1, ptr %10, align 4
  call void @llvm.lifetime.end.p0(i64 4, ptr %9) #7
  br label %115

114:                                              ; preds = %94
  store i32 0, ptr %10, align 4
  br label %115

115:                                              ; preds = %114, %108
  call void @llvm.lifetime.end.p0(i64 8, ptr %8) #7
  call void @llvm.lifetime.end.p0(i64 4, ptr %7) #7
  call void @llvm.lifetime.end.p0(i64 24, ptr %6) #7
  %116 = load i32, ptr %10, align 4
  switch i32 %116, label %121 [
    i32 0, label %117
    i32 1, label %119
  ]

117:                                              ; preds = %115
  br label %118

118:                                              ; preds = %117, %18, %13, %2
  store i32 0, ptr %3, align 4
  br label %119

119:                                              ; preds = %118, %115
  %120 = load i32, ptr %3, align 4
  ret i32 %120

121:                                              ; preds = %115
  unreachable
}