; Function Attrs: nounwind uwtable
define range(i32 0, 2) i32 @dt_datetime_exif_to_numbers(ptr noundef writeonly %0, ptr noundef readonly %1) local_unnamed_addr #0 {
  %3 = alloca [24 x i8], align 16
  %.not = icmp eq ptr %1, null
  br i1 %.not, label %54, label %4

4:                                                ; preds = %2
  %5 = load i8, ptr %1, align 1, !tbaa !57
  %6 = icmp ne i8 %5, 0
  %7 = icmp ne ptr %0, null
  %or.cond = and i1 %7, %6
  br i1 %or.cond, label %8, label %54

8:                                                ; preds = %4
  call void @llvm.lifetime.start.p0(i64 24, ptr nonnull %3) #7
  call void @llvm.memcpy.p0.p0.i64(ptr noundef nonnull align 16 dereferenceable(24) %3, ptr noundef nonnull align 16 dereferenceable(24) @__const.dt_datetime_exif_to_numbers.sdt, i64 24, i1 false)
  %9 = tail call i64 @strlen(ptr noundef nonnull dereferenceable(1) %1) #8
  %10 = trunc i64 %9 to i32
  %11 = shl i64 %9, 32
  %sext = add i64 %11, -4294967296
  %12 = ashr exact i64 %sext, 32
  %13 = getelementptr inbounds i8, ptr %1, i64 %12
  %14 = load i8, ptr %13, align 1, !tbaa !57
  %15 = icmp eq i8 %14, 90
  br i1 %15, label %16, label %18

16:                                               ; preds = %8
  %17 = add nsw i32 %10, -1
  br label %.critedge

18:                                               ; preds = %8
  %19 = icmp sgt i32 %10, 10
  br i1 %19, label %20, label %.critedge

20:                                               ; preds = %18
  %21 = add nsw i32 %10, -3
  %22 = zext nneg i32 %21 to i64
  %23 = getelementptr inbounds nuw i8, ptr %1, i64 %22
  %24 = load i8, ptr %23, align 1, !tbaa !57
  switch i8 %24, label %25 [
    i8 43, label %.critedge
    i8 45, label %.critedge
  ]

25:                                               ; preds = %20
  %26 = add nsw i32 %10, -6
  %27 = zext nneg i32 %26 to i64
  %28 = getelementptr inbounds nuw i8, ptr %1, i64 %27
  %29 = load i8, ptr %28, align 1, !tbaa !57
  switch i8 %29, label %.critedge [
    i8 43, label %30
    i8 45, label %30
  ]

30:                                               ; preds = %25, %25
  br label %.critedge

.critedge:                                        ; preds = %18, %25, %20, %20, %30, %16
  %.031 = phi i32 [ %17, %16 ], [ %26, %30 ], [ %21, %20 ], [ %21, %20 ], [ %10, %25 ], [ %10, %18 ]
  %31 = tail call i32 @llvm.umin.i32(i32 %.031, i32 23)
  %32 = zext nneg i32 %31 to i64
  call void @llvm.memcpy.p0.p0.i64(ptr nonnull align 16 %3, ptr nonnull align 1 %1, i64 %32, i1 false)
  %33 = getelementptr inbounds nuw i8, ptr %3, i64 7
  store i8 45, ptr %33, align 1, !tbaa !57
  %34 = getelementptr inbounds nuw i8, ptr %3, i64 4
  store i8 45, ptr %34, align 4, !tbaa !57
  %35 = load ptr, ptr getelementptr inbounds nuw (i8, ptr @darktable, i64 3328), align 8, !tbaa !6
  %36 = call ptr @g_date_time_new_from_iso8601(ptr noundef nonnull %3, ptr noundef %35) #7
  %.not39.not = icmp eq ptr %36, null
  br i1 %.not39.not, label %.sink.split, label %37

37:                                               ; preds = %.critedge
  %38 = call i32 @g_date_time_get_year(ptr noundef nonnull %36) #7
  store i32 %38, ptr %0, align 4, !tbaa !49
  %39 = call i32 @g_date_time_get_month(ptr noundef nonnull %36) #7
  %40 = getelementptr inbounds nuw i8, ptr %0, i64 4
  store i32 %39, ptr %40, align 4, !tbaa !51
  %41 = call i32 @g_date_time_get_day_of_month(ptr noundef nonnull %36) #7
  %42 = getelementptr inbounds nuw i8, ptr %0, i64 8
  store i32 %41, ptr %42, align 4, !tbaa !52
  %43 = call i32 @g_date_time_get_hour(ptr noundef nonnull %36) #7
  %44 = getelementptr inbounds nuw i8, ptr %0, i64 12
  store i32 %43, ptr %44, align 4, !tbaa !53
  %45 = call i32 @g_date_time_get_minute(ptr noundef nonnull %36) #7
  %46 = getelementptr inbounds nuw i8, ptr %0, i64 16
  store i32 %45, ptr %46, align 4, !tbaa !54
  %47 = call i32 @g_date_time_get_second(ptr noundef nonnull %36) #7
  %48 = getelementptr inbounds nuw i8, ptr %0, i64 20
  store i32 %47, ptr %48, align 4, !tbaa !55
  %49 = call i32 @g_date_time_get_microsecond(ptr noundef nonnull %36) #7
  %50 = sitofp i32 %49 to double
  %51 = fmul reassoc nsz arcp contract afn double %50, 1.000000e-03
  %52 = fptosi double %51 to i32
  %53 = getelementptr inbounds nuw i8, ptr %0, i64 24
  store i32 %52, ptr %53, align 4, !tbaa !56
  call void @g_date_time_unref(ptr noundef nonnull %36) #7
  br label %.sink.split

.sink.split:                                      ; preds = %.critedge, %37
  %.1.ph = phi i32 [ 1, %37 ], [ 0, %.critedge ]
  call void @llvm.lifetime.end.p0(i64 24, ptr nonnull %3) #7
  br label %54

54:                                               ; preds = %.sink.split, %2, %4
  %.1 = phi i32 [ 0, %4 ], [ 0, %2 ], [ %.1.ph, %.sink.split ]
  ret i32 %.1
}